target datalayout = "e-m:e-p270:32:32-p271:32:32-p272:64:64-i64:64-i128:128-f80:128-n8:16:32:64-S128"
target triple = "x86_64-pc-linux-gnu"

%struct.TValue = type { %union.Value, i8 }
%union.Value = type { ptr }
%struct.GCObject = type { ptr, i8, i8 }
%struct.Table = type { ptr, i8, i8, i8, i8, i32, ptr, ptr, ptr, ptr }
%union.Node = type { %struct.NodeKey }
%struct.NodeKey = type { %union.Value, i8, i8, i32, %union.Value }

; Function Attrs: nounwind uwtable
define internal void @clearkey(ptr noundef %0) #0 {
  %2 = alloca ptr, align 8
  store ptr %0, ptr %2, align 8, !tbaa !107
  %3 = load ptr, ptr %2, align 8, !tbaa !107
  %4 = getelementptr inbounds nuw %struct.NodeKey, ptr %3, i32 0, i32 2
  %5 = load i8, ptr %4, align 1, !tbaa !37
  %6 = zext i8 %5 to i32
  %7 = and i32 %6, 64
  %8 = icmp ne i32 %7, 0
  br i1 %8, label %9, label %12

9:                                                ; preds = %1
  %10 = load ptr, ptr %2, align 8, !tbaa !107
  %11 = getelementptr inbounds nuw %struct.NodeKey, ptr %10, i32 0, i32 2
  store i8 11, ptr %11, align 1, !tbaa !37
  br label %12

12:                                               ; preds = %9, %1
  ret void
}

; Function Attrs: nounwind uwtable
define internal i32 @iscleared(ptr noundef %0, ptr noundef %1) #0 {
  %3 = alloca i32, align 4
  %4 = alloca ptr, align 8
  %5 = alloca ptr, align 8
  store ptr %0, ptr %4, align 8, !tbaa !22
  store ptr %1, ptr %5, align 8, !tbaa !9
  %6 = load ptr, ptr %5, align 8, !tbaa !9
  %7 = icmp eq ptr %6, null
  br i1 %7, label %8, label %9

8:                                                ; preds = %2
  store i32 0, ptr %3, align 4
  br label %33

9:                                                ; preds = %2
  %10 = load ptr, ptr %5, align 8, !tbaa !9
  %11 = getelementptr inbounds nuw %struct.GCObject, ptr %10, i32 0, i32 1
  %12 = load i8, ptr %11, align 8, !tbaa !35
  %13 = zext i8 %12 to i32
  %14 = and i32 %13, 15
  %15 = icmp eq i32 %14, 4
  br i1 %15, label %16, label %27

16:                                               ; preds = %9
  %17 = load ptr, ptr %5, align 8, !tbaa !9
  %18 = getelementptr inbounds nuw %struct.GCObject, ptr %17, i32 0, i32 2
  %19 = load i8, ptr %18, align 1, !tbaa !30
  %20 = zext i8 %19 to i32
  %21 = and i32 %20, 24
  %22 = icmp ne i32 %21, 0
  br i1 %22, label %23, label %26

23:                                               ; preds = %16
  %24 = load ptr, ptr %4, align 8, !tbaa !22
  %25 = load ptr, ptr %5, align 8, !tbaa !9
  call void @reallymarkobject(ptr noundef %24, ptr noundef %25)
  br label %26

26:                                               ; preds = %23, %16
  store i32 0, ptr %3, align 4
  br label %33

27:                                               ; preds = %9
  %28 = load ptr, ptr %5, align 8, !tbaa !9
  %29 = getelementptr inbounds nuw %struct.GCObject, ptr %28, i32 0, i32 2
  %30 = load i8, ptr %29, align 1, !tbaa !30
  %31 = zext i8 %30 to i32
  %32 = and i32 %31, 24
  store i32 %32, ptr %3, align 4
  br label %33

33:                                               ; preds = %27, %26, %8
  %34 = load i32, ptr %3, align 4
  ret i32 %34
}

; Function Attrs: nounwind uwtable
define internal void @clearbyvalues(ptr noundef %0, ptr noundef %1, ptr noundef %2) #0 {
  %4 = alloca ptr, align 8
  %5 = alloca ptr, align 8
  %6 = alloca ptr, align 8
  %7 = alloca ptr, align 8
  %8 = alloca ptr, align 8
  %9 = alloca ptr, align 8
  %10 = alloca i32, align 4
  %11 = alloca i32, align 4
  %12 = alloca ptr, align 8
  store ptr %0, ptr %4, align 8, !tbaa !22
  store ptr %1, ptr %5, align 8, !tbaa !9
  store ptr %2, ptr %6, align 8, !tbaa !9
  br label %13

13:                                               ; preds = %120, %3
  %14 = load ptr, ptr %5, align 8, !tbaa !9
  %15 = load ptr, ptr %6, align 8, !tbaa !9
  %16 = icmp ne ptr %14, %15
  br i1 %16, label %17, label %124

17:                                               ; preds = %13
  call void @llvm.lifetime.start.p0(i64 8, ptr %7) #6
  %18 = load ptr, ptr %5, align 8, !tbaa !9
  store ptr %18, ptr %7, align 8, !tbaa !59
  call void @llvm.lifetime.start.p0(i64 8, ptr %8) #6
  call void @llvm.lifetime.start.p0(i64 8, ptr %9) #6
  %19 = load ptr, ptr %7, align 8, !tbaa !59
  %20 = getelementptr inbounds nuw %struct.Table, ptr %19, i32 0, i32 7
  %21 = load ptr, ptr %20, align 8, !tbaa !105
  %22 = load ptr, ptr %7, align 8, !tbaa !59
  %23 = getelementptr inbounds nuw %struct.Table, ptr %22, i32 0, i32 4
  %24 = load i8, ptr %23, align 1, !tbaa !106
  %25 = zext i8 %24 to i32
  %26 = shl i32 1, %25
  %27 = zext i32 %26 to i64
  %28 = getelementptr inbounds nuw %union.Node, ptr %21, i64 %27
  store ptr %28, ptr %9, align 8, !tbaa !107
  call void @llvm.lifetime.start.p0(i64 4, ptr %10) #6
  call void @llvm.lifetime.start.p0(i64 4, ptr %11) #6
  %29 = load ptr, ptr %7, align 8, !tbaa !59
  %30 = getelementptr inbounds nuw %struct.Table, ptr %29, i32 0, i32 5
  %31 = load i32, ptr %30, align 4, !tbaa !108
  store i32 %31, ptr %11, align 4, !tbaa !65
  store i32 0, ptr %10, align 4, !tbaa !65
  br label %32

32:                                               ; preds = %74, %17
  %33 = load i32, ptr %10, align 4, !tbaa !65
  %34 = load i32, ptr %11, align 4, !tbaa !65
  %35 = icmp ult i32 %33, %34
  br i1 %35, label %36, label %77

36:                                               ; preds = %32
  call void @llvm.lifetime.start.p0(i64 8, ptr %12) #6
  %37 = load ptr, ptr %7, align 8, !tbaa !59
  %38 = getelementptr inbounds nuw %struct.Table, ptr %37, i32 0, i32 6
  %39 = load ptr, ptr %38, align 8, !tbaa !109
  %40 = getelementptr inbounds nuw i8, ptr %39, i64 4
  %41 = load i32, ptr %10, align 4, !tbaa !65
  %42 = zext i32 %41 to i64
  %43 = getelementptr inbounds nuw i8, ptr %40, i64 %42
  %44 = load i8, ptr %43, align 1, !tbaa !37
  %45 = zext i8 %44 to i32
  %46 = and i32 %45, 64
  %47 = icmp ne i32 %46, 0
  br i1 %47, label %48, label %58

48:                                               ; preds = %36
  %49 = load ptr, ptr %7, align 8, !tbaa !59
  %50 = getelementptr inbounds nuw %struct.Table, ptr %49, i32 0, i32 6
  %51 = load ptr, ptr %50, align 8, !tbaa !109
  %52 = getelementptr inbounds %union.Value, ptr %51, i64 -1
  %53 = load i32, ptr %10, align 4, !tbaa !65
  %54 = zext i32 %53 to i64
  %55 = sub i64 0, %54
  %56 = getelementptr inbounds %union.Value, ptr %52, i64 %55
  %57 = load ptr, ptr %56, align 8, !tbaa !37
  br label %59

58:                                               ; preds = %36
  br label %59

59:                                               ; preds = %58, %48
  %60 = phi ptr [ %57, %48 ], [ null, %58 ]
  store ptr %60, ptr %12, align 8, !tbaa !9
  %61 = load ptr, ptr %4, align 8, !tbaa !22
  %62 = load ptr, ptr %12, align 8, !tbaa !9
  %63 = call i32 @iscleared(ptr noundef %61, ptr noundef %62)
  %64 = icmp ne i32 %63, 0
  br i1 %64, label %65, label %73

65:                                               ; preds = %59
  %66 = load ptr, ptr %7, align 8, !tbaa !59
  %67 = getelementptr inbounds nuw %struct.Table, ptr %66, i32 0, i32 6
  %68 = load ptr, ptr %67, align 8, !tbaa !109
  %69 = getelementptr inbounds nuw i8, ptr %68, i64 4
  %70 = load i32, ptr %10, align 4, !tbaa !65
  %71 = zext i32 %70 to i64
  %72 = getelementptr inbounds nuw i8, ptr %69, i64 %71
  store i8 16, ptr %72, align 1, !tbaa !37
  br label %73

73:                                               ; preds = %65, %59
  call void @llvm.lifetime.end.p0(i64 8, ptr %12) #6
  br label %74

74:                                               ; preds = %73
  %75 = load i32, ptr %10, align 4, !tbaa !65
  %76 = add i32 %75, 1
  store i32 %76, ptr %10, align 4, !tbaa !65
  br label %32

77:                                               ; preds = %32
  %78 = load ptr, ptr %7, align 8, !tbaa !59
  %79 = getelementptr inbounds nuw %struct.Table, ptr %78, i32 0, i32 7
  %80 = load ptr, ptr %79, align 8, !tbaa !105
  %81 = getelementptr inbounds %union.Node, ptr %80, i64 0
  store ptr %81, ptr %8, align 8, !tbaa !107
  br label %82

82:                                               ; preds = %116, %77
  %83 = load ptr, ptr %8, align 8, !tbaa !107
  %84 = load ptr, ptr %9, align 8, !tbaa !107
  %85 = icmp ult ptr %83, %84
  br i1 %85, label %86, label %119

86:                                               ; preds = %82
  %87 = load ptr, ptr %4, align 8, !tbaa !22
  %88 = load ptr, ptr %8, align 8, !tbaa !107
  %89 = getelementptr inbounds nuw %struct.TValue, ptr %88, i32 0, i32 1
  %90 = load i8, ptr %89, align 8, !tbaa !37
  %91 = zext i8 %90 to i32
  %92 = and i32 %91, 64
  %93 = icmp ne i32 %92, 0
  br i1 %93, label %94, label %98

94:                                               ; preds = %86
  %95 = load ptr, ptr %8, align 8, !tbaa !107
  %96 = getelementptr inbounds nuw %struct.TValue, ptr %95, i32 0, i32 0
  %97 = load ptr, ptr %96, align 8, !tbaa !37
  br label %99

98:                                               ; preds = %86
  br label %99

99:                                               ; preds = %98, %94
  %100 = phi ptr [ %97, %94 ], [ null, %98 ]
  %101 = call i32 @iscleared(ptr noundef %87, ptr noundef %100)
  %102 = icmp ne i32 %101, 0
  br i1 %102, label %103, label %106

103:                                              ; preds = %99
  %104 = load ptr, ptr %8, align 8, !tbaa !107
  %105 = getelementptr inbounds nuw %struct.TValue, ptr %104, i32 0, i32 1
  store i8 16, ptr %105, align 8, !tbaa !37
  br label %106

106:                                              ; preds = %103, %99
  %107 = load ptr, ptr %8, align 8, !tbaa !107
  %108 = getelementptr inbounds nuw %struct.TValue, ptr %107, i32 0, i32 1
  %109 = load i8, ptr %108, align 8, !tbaa !37
  %110 = zext i8 %109 to i32
  %111 = and i32 %110, 15
  %112 = icmp eq i32 %111, 0
  br i1 %112, label %113, label %115

113:                                              ; preds = %106
  %114 = load ptr, ptr %8, align 8, !tbaa !107
  call void @clearkey(ptr noundef %114)
  br label %115

115:                                              ; preds = %113, %106
  br label %116

116:                                              ; preds = %115
  %117 = load ptr, ptr %8, align 8, !tbaa !107
  %118 = getelementptr inbounds nuw %union.Node, ptr %117, i32 1
  store ptr %118, ptr %8, align 8, !tbaa !107
  br label %82

119:                                              ; preds = %82
  call void @llvm.lifetime.end.p0(i64 4, ptr %11) #6
  call void @llvm.lifetime.end.p0(i64 4, ptr %10) #6
  call void @llvm.lifetime.end.p0(i64 8, ptr %9) #6
  call void @llvm.lifetime.end.p0(i64 8, ptr %8) #6
  call void @llvm.lifetime.end.p0(i64 8, ptr %7) #6
  br label %120

120:                                              ; preds = %119
  %121 = load ptr, ptr %5, align 8, !tbaa !9
  %122 = getelementptr inbounds nuw %struct.Table, ptr %121, i32 0, i32 9
  %123 = load ptr, ptr %122, align 8, !tbaa !104
  store ptr %123, ptr %5, align 8, !tbaa !9
  br label %13

124:                                              ; preds = %13
  ret void
}