; Function Attrs: nounwind uwtable
define internal fastcc void @clearbyvalues(ptr noundef captures(none) %0, ptr noundef readonly captures(address) %1, ptr noundef readnone captures(address) %2) unnamed_addr #0 {
  %.not47 = icmp eq ptr %1, %2
  br i1 %.not47, label %._crit_edge51, label %.lr.ph50

.lr.ph50:                                         ; preds = %3, %._crit_edge46
  %.048 = phi ptr [ %67, %._crit_edge46 ], [ %1, %3 ]
  %4 = getelementptr inbounds nuw i8, ptr %.048, i64 24
  %5 = load ptr, ptr %4, align 8, !tbaa !95
  %6 = getelementptr inbounds nuw i8, ptr %.048, i64 11
  %7 = load i8, ptr %6, align 1, !tbaa !96
  %8 = zext nneg i8 %7 to i32
  %9 = shl nuw i32 1, %8
  %10 = zext i32 %9 to i64
  %11 = getelementptr inbounds nuw %union.Node, ptr %5, i64 %10
  %12 = getelementptr inbounds nuw i8, ptr %.048, i64 12
  %13 = load i32, ptr %12, align 4, !tbaa !97
  %.not52 = icmp eq i32 %13, 0
  br i1 %.not52, label %._crit_edge, label %.lr.ph

.lr.ph:                                           ; preds = %.lr.ph50
  %14 = getelementptr inbounds nuw i8, ptr %.048, i64 16
  %wide.trip.count = zext i32 %13 to i64
  br label %15

15:                                               ; preds = %.lr.ph, %iscleared.exit.thread
  %indvars.iv = phi i64 [ 0, %.lr.ph ], [ %indvars.iv.next, %iscleared.exit.thread ]
  %16 = load ptr, ptr %14, align 8, !tbaa !98
  %17 = getelementptr inbounds nuw i8, ptr %16, i64 4
  %18 = getelementptr inbounds nuw i8, ptr %17, i64 %indvars.iv
  %19 = load i8, ptr %18, align 1, !tbaa !33
  %20 = and i8 %19, 64
  %.not31 = icmp eq i8 %20, 0
  br i1 %.not31, label %iscleared.exit.thread, label %21

21:                                               ; preds = %15
  %22 = getelementptr inbounds i8, ptr %16, i64 -8
  %23 = sub nsw i64 0, %indvars.iv
  %24 = getelementptr inbounds %union.Value, ptr %22, i64 %23
  %25 = load ptr, ptr %24, align 8, !tbaa !33
  %26 = icmp eq ptr %25, null
  br i1 %26, label %iscleared.exit.thread, label %27

27:                                               ; preds = %21
  %28 = getelementptr inbounds nuw i8, ptr %25, i64 8
  %29 = load i8, ptr %28, align 8, !tbaa !32
  %30 = and i8 %29, 15
  %31 = icmp eq i8 %30, 4
  %32 = getelementptr inbounds nuw i8, ptr %25, i64 9
  %33 = load i8, ptr %32, align 1, !tbaa !27
  %34 = and i8 %33, 24
  %.not.i = icmp eq i8 %34, 0
  br i1 %31, label %35, label %iscleared.exit

35:                                               ; preds = %27
  br i1 %.not.i, label %iscleared.exit.thread, label %36

36:                                               ; preds = %35
  tail call fastcc void @reallymarkobject(ptr noundef %0, ptr noundef nonnull %25)
  br label %iscleared.exit.thread

iscleared.exit:                                   ; preds = %27
  br i1 %.not.i, label %iscleared.exit.thread, label %37

37:                                               ; preds = %iscleared.exit
  store i8 16, ptr %18, align 1, !tbaa !33
  br label %iscleared.exit.thread

iscleared.exit.thread:                            ; preds = %15, %35, %36, %21, %37, %iscleared.exit
  %indvars.iv.next = add nuw nsw i64 %indvars.iv, 1
  %exitcond.not = icmp eq i64 %indvars.iv.next, %wide.trip.count
  br i1 %exitcond.not, label %._crit_edge.loopexit, label %15

._crit_edge.loopexit:                             ; preds = %iscleared.exit.thread
  %.pre = load ptr, ptr %4, align 8, !tbaa !95
  br label %._crit_edge

._crit_edge:                                      ; preds = %._crit_edge.loopexit, %.lr.ph50
  %38 = phi ptr [ %.pre, %._crit_edge.loopexit ], [ %5, %.lr.ph50 ]
  %39 = icmp ult ptr %38, %11
  br i1 %39, label %.lr.ph45, label %._crit_edge46

.lr.ph45:                                         ; preds = %._crit_edge, %clearkey.exit
  %.02743 = phi ptr [ %64, %clearkey.exit ], [ %38, %._crit_edge ]
  %40 = getelementptr inbounds nuw i8, ptr %.02743, i64 8
  %41 = load i8, ptr %40, align 8, !tbaa !33
  %42 = and i8 %41, 64
  %.not29 = icmp eq i8 %42, 0
  br i1 %.not29, label %iscleared.exit35.thread, label %43

43:                                               ; preds = %.lr.ph45
  %44 = load ptr, ptr %.02743, align 8, !tbaa !33
  %45 = icmp eq ptr %44, null
  br i1 %45, label %iscleared.exit35.thread, label %46

46:                                               ; preds = %43
  %47 = getelementptr inbounds nuw i8, ptr %44, i64 8
  %48 = load i8, ptr %47, align 8, !tbaa !32
  %49 = and i8 %48, 15
  %50 = icmp eq i8 %49, 4
  %51 = getelementptr inbounds nuw i8, ptr %44, i64 9
  %52 = load i8, ptr %51, align 1, !tbaa !27
  %53 = and i8 %52, 24
  %.not.i34 = icmp eq i8 %53, 0
  br i1 %50, label %54, label %iscleared.exit35

54:                                               ; preds = %46
  br i1 %.not.i34, label %iscleared.exit35.thread, label %55

55:                                               ; preds = %54
  tail call fastcc void @reallymarkobject(ptr noundef %0, ptr noundef nonnull %44)
  %.pre54 = load i8, ptr %40, align 8, !tbaa !33
  br label %iscleared.exit35.thread

iscleared.exit35:                                 ; preds = %46
  br i1 %.not.i34, label %iscleared.exit35.thread, label %iscleared.exit35.thread.thread

iscleared.exit35.thread.thread:                   ; preds = %iscleared.exit35
  store i8 16, ptr %40, align 8, !tbaa !33
  br label %59

iscleared.exit35.thread:                          ; preds = %.lr.ph45, %54, %55, %43, %iscleared.exit35
  %56 = phi i8 [ %41, %.lr.ph45 ], [ %41, %54 ], [ %.pre54, %55 ], [ %41, %43 ], [ %41, %iscleared.exit35 ]
  %57 = and i8 %56, 15
  %58 = icmp eq i8 %57, 0
  br i1 %58, label %59, label %clearkey.exit

59:                                               ; preds = %iscleared.exit35.thread.thread, %iscleared.exit35.thread
  %60 = getelementptr inbounds nuw i8, ptr %.02743, i64 9
  %61 = load i8, ptr %60, align 1, !tbaa !33
  %62 = and i8 %61, 64
  %.not.i36 = icmp eq i8 %62, 0
  br i1 %.not.i36, label %clearkey.exit, label %63

63:                                               ; preds = %59
  store i8 11, ptr %60, align 1, !tbaa !33
  br label %clearkey.exit

clearkey.exit:                                    ; preds = %63, %59, %iscleared.exit35.thread
  %64 = getelementptr inbounds nuw i8, ptr %.02743, i64 24
  %65 = icmp ult ptr %64, %11
  br i1 %65, label %.lr.ph45, label %._crit_edge46

._crit_edge46:                                    ; preds = %clearkey.exit, %._crit_edge
  %66 = getelementptr inbounds nuw i8, ptr %.048, i64 40
  %67 = load ptr, ptr %66, align 8, !tbaa !92
  %.not = icmp eq ptr %67, %2
  br i1 %.not, label %._crit_edge51, label %.lr.ph50

._crit_edge51:                                    ; preds = %._crit_edge46, %3
  ret void
}